(dp0
Vengine
p1
Vpdflatex
p2
sVpackages
p3
c__builtin__
set
p4
((lp5
Vamsmath
p6
aVgrid-system
p7
aVbooktabs
p8
aVragged2e
p9
aVtimes
p10
atp11
Rp12
sVfiles_with_guttermarks
p13
g4
((lp14
S'monster_monad.tex'
p15
aV/Users/chrispy/Desktop/UoN_Compsci/Yr3 Project/writeups/./monster_monad.tex
p16
atp17
Rp18
sVsynctex
p19
I01
s.